target datalayout = "e-m:e-p270:32:32-p271:32:32-p272:64:64-i64:64-i128:128-f80:128-n8:16:32:64-S128"
target triple = "x86_64-unknown-linux-gnu"

; Function Attrs: mustprogress nounwind uwtable
define dso_local noundef zeroext i1 @_ZN2EA4StdC10IsLeapYearEj(i32 noundef %nYear) #3 {
entry:
  %nYear.addr = alloca i32, align 4
  store i32 %nYear, ptr %nYear.addr, align 4
  %0 = load i32, ptr %nYear.addr, align 4
  %and = and i32 %0, 3
  %tobool = icmp ne i32 %and, 0
  br i1 %tobool, label %lor.rhs, label %land.lhs.true

land.lhs.true:                                    ; preds = %entry
  %1 = load i32, ptr %nYear.addr, align 4
  %rem = urem i32 %1, 100
  %tobool1 = icmp ne i32 %rem, 0
  br i1 %tobool1, label %lor.end, label %lor.rhs

lor.rhs:                                          ; preds = %land.lhs.true, %entry
  %2 = load i32, ptr %nYear.addr, align 4
  %rem2 = urem i32 %2, 400
  %tobool3 = icmp ne i32 %rem2, 0
  %lnot = xor i1 %tobool3, true
  br label %lor.end

lor.end:                                          ; preds = %lor.rhs, %land.lhs.true
  %3 = phi i1 [ true, %land.lhs.true ], [ %lnot, %lor.rhs ]
  ret i1 %3
}

; Function Attrs: mustprogress nounwind uwtable
define dso_local noundef i32 @_ZN2EA4StdC13GetDaysInYearEj(i32 noundef %nYear) #3 {
entry:
  %nYear.addr = alloca i32, align 4
  store i32 %nYear, ptr %nYear.addr, align 4
  %0 = load i32, ptr %nYear.addr, align 4
  %call = call noundef zeroext i1 @_ZN2EA4StdC10IsLeapYearEj(i32 noundef %0)
  %cond = select i1 %call, i32 366, i32 365
  ret i32 %cond
}