; Function Attrs: mustprogress nofree norecurse nosync nounwind willreturn memory(none) uwtable
define dso_local noundef range(i32 365, 367) i32 @_ZN2EA4StdC13GetDaysInYearEj(i32 noundef %nYear) local_unnamed_addr #4 {
entry:
  %and.i = and i32 %nYear, 3
  %tobool.not.i = icmp eq i32 %and.i, 0
  %rem.i = urem i32 %nYear, 100
  %tobool1.not.i = icmp ne i32 %rem.i, 0
  %or.cond.i.not1 = and i1 %tobool.not.i, %tobool1.not.i
  %rem2.i = urem i32 %nYear, 400
  %tobool3.not.i = icmp eq i32 %rem2.i, 0
  %or.cond = or i1 %tobool3.not.i, %or.cond.i.not1
  %0 = select i1 %or.cond, i32 366, i32 365
  ret i32 %0
}